target datalayout = "e-m:e-p270:32:32-p271:32:32-p272:64:64-i64:64-i128:128-f80:128-n8:16:32:64-S128"
target triple = "x86_64-pc-linux-gnu"

; Function Attrs: nounwind sspstrong uwtable
define dso_local void @rb_execarg_parent_start(i64 noundef %0) #0 {
  %2 = alloca i64, align 8
  %3 = alloca i32, align 4
  store i64 %0, ptr %2, align 8, !tbaa !35
  call void @llvm.lifetime.start.p0(i64 4, ptr %3) #27
  %4 = load i64, ptr %2, align 8, !tbaa !35
  %5 = call i64 @rb_protect(ptr noundef @rb_execarg_parent_start1, i64 noundef %4, ptr noundef %3)
  %6 = load i32, ptr %3, align 4, !tbaa !34
  %7 = icmp ne i32 %6, 0
  br i1 %7, label %8, label %11

8:                                                ; preds = %1
  %9 = load i64, ptr %2, align 8, !tbaa !35
  call void @rb_execarg_parent_end(i64 noundef %9)
  %10 = load i32, ptr %3, align 4, !tbaa !34
  call void @rb_jump_tag(i32 noundef %10) #30
  unreachable

11:                                               ; preds = %1
  call void @llvm.lifetime.end.p0(i64 4, ptr %3) #27
  ret void
}