; Function Attrs: nounwind sspstrong uwtable
define dso_local void @rb_execarg_parent_start(i64 noundef %0) local_unnamed_addr #1 {
  %2 = alloca i32, align 4
  call void @llvm.lifetime.start.p0(i64 4, ptr nonnull %2) #27
  %3 = call i64 @rb_protect(ptr noundef nonnull @rb_execarg_parent_start1, i64 noundef %0, ptr noundef nonnull %2) #27
  %4 = load i32, ptr %2, align 4, !tbaa !60
  %.not = icmp eq i32 %4, 0
  br i1 %.not, label %7, label %5

5:                                                ; preds = %1
  call void @rb_execarg_parent_end(i64 noundef %0)
  %6 = load i32, ptr %2, align 4, !tbaa !60
  call void @rb_jump_tag(i32 noundef %6) #29
  unreachable

7:                                                ; preds = %1
  call void @llvm.lifetime.end.p0(i64 4, ptr nonnull %2) #27
  ret void
}